target datalayout = "e-m:e-p270:32:32-p271:32:32-p272:64:64-i64:64-i128:128-f80:128-n8:16:32:64-S128"
target triple = "x86_64-pc-linux-gnu"

%struct.H5O_pline_t = type { %struct.H5O_shared_t, i32, i64, i64, ptr }
%struct.H5O_shared_t = type { i32, ptr, i32, %union.anon.1 }
%union.anon.1 = type { %struct.H5O_mesg_loc_t }
%struct.H5O_mesg_loc_t = type { i32, i64 }
%struct.H5Z_filter_info_t = type { i32, i32, [12 x i8], ptr, i64, [4 x i32], ptr }

@.str = private unnamed_addr constant [97 x i8] c"generated/home/dtcxzyw/WorkSpace/Projects/compilers/llvm-opt-benchmark/bench/hdf5/hdf5/src/H5Z.c\00", align 1
@H5E_PLINE_g = external global i64, align 8
@H5E_ARGS_g = external global i64, align 8
@__func__.H5Z_ignore_filters = private unnamed_addr constant [19 x i8] c"H5Z_ignore_filters\00", align 1
@H5E_BADTYPE_g = external global i64, align 8
@.str.23 = private unnamed_addr constant [41 x i8] c"can't get dataset creation property list\00", align 1
@.str.24 = private unnamed_addr constant [6 x i8] c"pline\00", align 1
@H5E_CANTGET_g = external global i64, align 8
@.str.25 = private unnamed_addr constant [31 x i8] c"can't retrieve pipeline filter\00", align 1
@H5E_CANTFILTER_g = external global i64, align 8
@.str.26 = private unnamed_addr constant [25 x i8] c"not suitable for filters\00", align 1

; Function Attrs: nounwind uwtable
define i32 @H5Z_ignore_filters(i64 noundef %0, ptr noundef %1, ptr noundef %2) #0 {
  %4 = alloca i64, align 8
  %5 = alloca ptr, align 8
  %6 = alloca ptr, align 8
  %7 = alloca ptr, align 8
  %8 = alloca %struct.H5O_pline_t, align 8
  %9 = alloca i32, align 4
  %10 = alloca i32, align 4
  %11 = alloca i8, align 1
  %12 = alloca i32, align 4
  %13 = alloca i8, align 1
  %14 = alloca i64, align 8
  store i64 %0, ptr %4, align 8
  store ptr %1, ptr %5, align 8
  store ptr %2, ptr %6, align 8
  store i8 0, ptr %11, align 1
  store i32 0, ptr %12, align 4
  store i8 0, ptr %13, align 1
  %15 = load i64, ptr %4, align 8
  %16 = call ptr @H5I_object(i64 noundef %15)
  store ptr %16, ptr %7, align 8
  %17 = icmp eq ptr null, %16
  br i1 %17, label %18, label %33

18:                                               ; preds = %3
  br label %19

19:                                               ; preds = %18
  br label %20

20:                                               ; preds = %19
  br label %21

21:                                               ; preds = %20
  %22 = load i64, ptr @H5E_ARGS_g, align 8
  %23 = load i64, ptr @H5E_BADTYPE_g, align 8
  %24 = call i32 (ptr, ptr, i32, i64, i64, ptr, ...) @H5E_printf_stack(ptr noundef @.str, ptr noundef @__func__.H5Z_ignore_filters, i32 noundef 1069, i64 noundef %22, i64 noundef %23, ptr noundef @.str.23)
  br label %25

25:                                               ; preds = %21
  store i8 1, ptr %13, align 1
  %26 = load i8, ptr %13, align 1
  %27 = trunc i8 %26 to i1
  %28 = zext i1 %27 to i8
  store i8 %28, ptr %13, align 1
  br label %29

29:                                               ; preds = %25
  br label %30

30:                                               ; preds = %29
  store i32 -1, ptr %12, align 4
  br label %120

31:                                               ; No predecessors!
  br label %32

32:                                               ; preds = %31
  br label %33

33:                                               ; preds = %32, %3
  %34 = load ptr, ptr %7, align 8
  %35 = call i32 @H5P_peek(ptr noundef %34, ptr noundef @.str.24, ptr noundef %8)
  %36 = icmp slt i32 %35, 0
  br i1 %36, label %37, label %52

37:                                               ; preds = %33
  br label %38

38:                                               ; preds = %37
  br label %39

39:                                               ; preds = %38
  br label %40

40:                                               ; preds = %39
  %41 = load i64, ptr @H5E_PLINE_g, align 8
  %42 = load i64, ptr @H5E_CANTGET_g, align 8
  %43 = call i32 (ptr, ptr, i32, i64, i64, ptr, ...) @H5E_printf_stack(ptr noundef @.str, ptr noundef @__func__.H5Z_ignore_filters, i32 noundef 1073, i64 noundef %41, i64 noundef %42, ptr noundef @.str.25)
  br label %44

44:                                               ; preds = %40
  store i8 1, ptr %13, align 1
  %45 = load i8, ptr %13, align 1
  %46 = trunc i8 %45 to i1
  %47 = zext i1 %46 to i8
  store i8 %47, ptr %13, align 1
  br label %48

48:                                               ; preds = %44
  br label %49

49:                                               ; preds = %48
  store i32 -1, ptr %12, align 4
  br label %120

50:                                               ; No predecessors!
  br label %51

51:                                               ; preds = %50
  br label %52

52:                                               ; preds = %51, %33
  %53 = load ptr, ptr %6, align 8
  %54 = call i32 @H5S_get_simple_extent_type(ptr noundef %53)
  store i32 %54, ptr %9, align 4
  %55 = load ptr, ptr %5, align 8
  %56 = call i32 @H5T_get_class(ptr noundef %55, i32 noundef 0)
  store i32 %56, ptr %10, align 4
  %57 = load i32, ptr %9, align 4
  %58 = icmp eq i32 2, %57
  br i1 %58, label %74, label %59

59:                                               ; preds = %52
  %60 = load i32, ptr %9, align 4
  %61 = icmp eq i32 0, %60
  br i1 %61, label %74, label %62

62:                                               ; preds = %59
  %63 = load i32, ptr %10, align 4
  %64 = icmp eq i32 9, %63
  br i1 %64, label %74, label %65

65:                                               ; preds = %62
  %66 = load i32, ptr %10, align 4
  %67 = icmp eq i32 3, %66
  br i1 %67, label %68, label %72

68:                                               ; preds = %65
  %69 = load ptr, ptr %5, align 8
  %70 = call i32 @H5T_is_variable_str(ptr noundef %69)
  %71 = icmp eq i32 1, %70
  br label %72

72:                                               ; preds = %68, %65
  %73 = phi i1 [ false, %65 ], [ %71, %68 ]
  br label %74

74:                                               ; preds = %72, %62, %59, %52
  %75 = phi i1 [ true, %62 ], [ true, %59 ], [ true, %52 ], [ %73, %72 ]
  %76 = zext i1 %75 to i8
  store i8 %76, ptr %11, align 1
  %77 = load i8, ptr %11, align 1
  %78 = trunc i8 %77 to i1
  br i1 %78, label %79, label %119

79:                                               ; preds = %74
  %80 = getelementptr inbounds %struct.H5O_pline_t, ptr %8, i32 0, i32 3
  %81 = load i64, ptr %80, align 8
  %82 = icmp ugt i64 %81, 0
  br i1 %82, label %83, label %118

83:                                               ; preds = %79
  store i64 0, ptr %14, align 8
  br label %84

84:                                               ; preds = %114, %83
  %85 = load i64, ptr %14, align 8
  %86 = getelementptr inbounds %struct.H5O_pline_t, ptr %8, i32 0, i32 3
  %87 = load i64, ptr %86, align 8
  %88 = icmp ult i64 %85, %87
  br i1 %88, label %89, label %117

89:                                               ; preds = %84
  %90 = getelementptr inbounds %struct.H5O_pline_t, ptr %8, i32 0, i32 4
  %91 = load ptr, ptr %90, align 8
  %92 = load i64, ptr %14, align 8
  %93 = getelementptr inbounds %struct.H5Z_filter_info_t, ptr %91, i64 %92
  %94 = getelementptr inbounds %struct.H5Z_filter_info_t, ptr %93, i32 0, i32 1
  %95 = load i32, ptr %94, align 4
  %96 = and i32 %95, 1
  %97 = icmp ne i32 %96, 0
  br i1 %97, label %113, label %98

98:                                               ; preds = %89
  br label %99

99:                                               ; preds = %98
  br label %100

100:                                              ; preds = %99
  br label %101

101:                                              ; preds = %100
  %102 = load i64, ptr @H5E_PLINE_g, align 8
  %103 = load i64, ptr @H5E_CANTFILTER_g, align 8
  %104 = call i32 (ptr, ptr, i32, i64, i64, ptr, ...) @H5E_printf_stack(ptr noundef @.str, ptr noundef @__func__.H5Z_ignore_filters, i32 noundef 1090, i64 noundef %102, i64 noundef %103, ptr noundef @.str.26)
  br label %105

105:                                              ; preds = %101
  store i8 1, ptr %13, align 1
  %106 = load i8, ptr %13, align 1
  %107 = trunc i8 %106 to i1
  %108 = zext i1 %107 to i8
  store i8 %108, ptr %13, align 1
  br label %109

109:                                              ; preds = %105
  br label %110

110:                                              ; preds = %109
  store i32 -1, ptr %12, align 4
  br label %120

111:                                              ; No predecessors!
  br label %112

112:                                              ; preds = %111
  br label %113

113:                                              ; preds = %112, %89
  br label %114

114:                                              ; preds = %113
  %115 = load i64, ptr %14, align 8
  %116 = add i64 %115, 1
  store i64 %116, ptr %14, align 8
  br label %84

117:                                              ; preds = %84
  store i32 1, ptr %12, align 4
  br label %118

118:                                              ; preds = %117, %79
  br label %119

119:                                              ; preds = %118, %74
  br label %120

120:                                              ; preds = %119, %110, %49, %30
  %121 = load i32, ptr %12, align 4
  ret i32 %121
}