; Function Attrs: nounwind uwtable
define range(i32 -1, 2) i32 @H5Z_ignore_filters(i64 noundef %0, ptr noundef %1, ptr noundef %2) local_unnamed_addr #0 {
  %4 = alloca %struct.H5O_pline_t, align 8
  %5 = tail call ptr @H5I_object(i64 noundef %0) #9
  %6 = icmp eq ptr %5, null
  br i1 %6, label %7, label %11

7:                                                ; preds = %3
  %8 = load i64, ptr @H5E_ARGS_g, align 8
  %9 = load i64, ptr @H5E_BADTYPE_g, align 8
  %10 = tail call i32 (ptr, ptr, i32, i64, i64, ptr, ...) @H5E_printf_stack(ptr noundef nonnull @.str, ptr noundef nonnull @__func__.H5Z_ignore_filters, i32 noundef 1069, i64 noundef %8, i64 noundef %9, ptr noundef nonnull @.str.23) #9
  br label %.thread

11:                                               ; preds = %3
  %12 = call i32 @H5P_peek(ptr noundef nonnull %5, ptr noundef nonnull @.str.24, ptr noundef nonnull %4) #9
  %13 = icmp slt i32 %12, 0
  br i1 %13, label %14, label %18

14:                                               ; preds = %11
  %15 = load i64, ptr @H5E_PLINE_g, align 8
  %16 = load i64, ptr @H5E_CANTGET_g, align 8
  %17 = call i32 (ptr, ptr, i32, i64, i64, ptr, ...) @H5E_printf_stack(ptr noundef nonnull @.str, ptr noundef nonnull @__func__.H5Z_ignore_filters, i32 noundef 1073, i64 noundef %15, i64 noundef %16, ptr noundef nonnull @.str.25) #9
  br label %.thread

18:                                               ; preds = %11
  %19 = call i32 @H5S_get_simple_extent_type(ptr noundef %2) #9
  %20 = call i32 @H5T_get_class(ptr noundef %1, i32 noundef 0) #9
  %21 = and i32 %19, -3
  %or.cond = icmp eq i32 %21, 0
  %22 = icmp eq i32 %20, 9
  %or.cond3 = select i1 %or.cond, i1 true, i1 %22
  br i1 %or.cond3, label %28, label %23

23:                                               ; preds = %18
  %24 = icmp eq i32 %20, 3
  br i1 %24, label %25, label %.thread

25:                                               ; preds = %23
  %26 = call i32 @H5T_is_variable_str(ptr noundef %1) #9
  %27 = icmp eq i32 %26, 1
  br label %28

28:                                               ; preds = %25, %18
  %29 = phi i1 [ true, %18 ], [ %27, %25 ]
  %30 = getelementptr inbounds i8, ptr %4, i64 56
  %31 = load i64, ptr %30, align 8
  %32 = icmp ne i64 %31, 0
  %or.cond6 = select i1 %29, i1 %32, i1 false
  br i1 %or.cond6, label %.preheader, label %.thread

.preheader:                                       ; preds = %28
  %33 = getelementptr inbounds i8, ptr %4, i64 64
  %34 = load ptr, ptr %33, align 8
  br label %37

35:                                               ; preds = %37
  %36 = add nuw i64 %.026, 1
  %exitcond.not = icmp eq i64 %36, %31
  br i1 %exitcond.not, label %.thread, label %37

37:                                               ; preds = %.preheader, %35
  %.026 = phi i64 [ 0, %.preheader ], [ %36, %35 ]
  %38 = getelementptr inbounds %struct.H5Z_filter_info_t, ptr %34, i64 %.026, i32 1
  %39 = load i32, ptr %38, align 4
  %40 = and i32 %39, 1
  %.not = icmp eq i32 %40, 0
  br i1 %.not, label %41, label %35

41:                                               ; preds = %37
  %42 = load i64, ptr @H5E_PLINE_g, align 8
  %43 = load i64, ptr @H5E_CANTFILTER_g, align 8
  %44 = call i32 (ptr, ptr, i32, i64, i64, ptr, ...) @H5E_printf_stack(ptr noundef nonnull @.str, ptr noundef nonnull @__func__.H5Z_ignore_filters, i32 noundef 1090, i64 noundef %42, i64 noundef %43, ptr noundef nonnull @.str.26) #9
  br label %.thread

.thread:                                          ; preds = %35, %23, %28, %41, %14, %7
  %.022 = phi i32 [ -1, %7 ], [ -1, %14 ], [ -1, %41 ], [ 0, %28 ], [ 0, %23 ], [ 1, %35 ]
  ret i32 %.022
}